target datalayout = "e-m:e-p270:32:32-p271:32:32-p272:64:64-i64:64-i128:128-f80:128-n8:16:32:64-S128"
target triple = "x86_64-pc-linux-gnu"

%"class.std::vector" = type { %"struct.std::_Vector_base" }
%"struct.std::_Vector_base" = type { %"struct.std::_Vector_base<unsigned long, std::allocator<unsigned long>>::_Vector_impl" }
%"struct.std::_Vector_base<unsigned long, std::allocator<unsigned long>>::_Vector_impl" = type { %"struct.std::_Vector_base<unsigned long, std::allocator<unsigned long>>::_Vector_impl_data" }
%"struct.std::_Vector_base<unsigned long, std::allocator<unsigned long>>::_Vector_impl_data" = type { ptr, ptr, ptr }
%"struct.faiss::ZnSphereSearch" = type { i32, i32, i32, %"class.std::vector.11" }
%"class.std::vector.11" = type { %"struct.std::_Vector_base.12" }
%"struct.std::_Vector_base.12" = type { %"struct.std::_Vector_base<float, std::allocator<float>>::_Vector_impl" }
%"struct.std::_Vector_base<float, std::allocator<float>>::_Vector_impl" = type { %"struct.std::_Vector_base<float, std::allocator<float>>::_Vector_impl_data" }
%"struct.std::_Vector_base<float, std::allocator<float>>::_Vector_impl_data" = type { ptr, ptr, ptr }
%"struct.faiss::ZnSphereCodec" = type { %"struct.faiss::EnumeratedVectors.base", %"struct.faiss::ZnSphereSearch", %"class.std::vector.22", i64, i64 }
%"struct.faiss::EnumeratedVectors.base" = type <{ ptr, i64, i32 }>
%"class.std::vector.22" = type { %"struct.std::_Vector_base.23" }
%"struct.std::_Vector_base.23" = type { %"struct.std::_Vector_base<faiss::ZnSphereCodec::CodeSegment, std::allocator<faiss::ZnSphereCodec::CodeSegment>>::_Vector_impl" }
%"struct.std::_Vector_base<faiss::ZnSphereCodec::CodeSegment, std::allocator<faiss::ZnSphereCodec::CodeSegment>>::_Vector_impl" = type { %"struct.std::_Vector_base<faiss::ZnSphereCodec::CodeSegment, std::allocator<faiss::ZnSphereCodec::CodeSegment>>::_Vector_impl_data" }
%"struct.std::_Vector_base<faiss::ZnSphereCodec::CodeSegment, std::allocator<faiss::ZnSphereCodec::CodeSegment>>::_Vector_impl_data" = type { ptr, ptr, ptr }
%"struct.faiss::ZnSphereCodecRec" = type { %"struct.faiss::EnumeratedVectors.base", i32, i32, i32, %"class.std::vector", %"class.std::vector", i32, %"class.std::vector.28" }
%"class.std::vector.28" = type { %"struct.std::_Vector_base.29" }
%"struct.std::_Vector_base.29" = type { %"struct.std::_Vector_base<std::vector<float>, std::allocator<std::vector<float>>>::_Vector_impl" }
%"struct.std::_Vector_base<std::vector<float>, std::allocator<std::vector<float>>>::_Vector_impl" = type { %"struct.std::_Vector_base<std::vector<float>, std::allocator<std::vector<float>>>::_Vector_impl_data" }
%"struct.std::_Vector_base<std::vector<float>, std::allocator<std::vector<float>>>::_Vector_impl_data" = type { ptr, ptr, ptr }
%"struct.faiss::ZnSphereCodecAlt" = type { %"struct.faiss::ZnSphereCodec", i8, %"struct.faiss::ZnSphereCodecRec" }

@_ZN5faiss16ZnSphereCodecRecC1Eii = unnamed_addr alias void (ptr, i32, i32), ptr @_ZN5faiss16ZnSphereCodecRecC2Eii

; Function Attrs: mustprogress uwtable
define void @_ZN5faiss16ZnSphereCodecAltC2Eii(ptr noundef nonnull align 8 dereferenceable(224) %0, i32 noundef %1, i32 noundef %2) unnamed_addr #0 align 2 personality ptr @__gxx_personality_v0 {
  %4 = alloca ptr, align 8
  %5 = alloca i32, align 4
  %6 = alloca i32, align 4
  %7 = alloca ptr, align 8
  %8 = alloca i32, align 4
  store ptr %0, ptr %4, align 8, !tbaa !64
  store i32 %1, ptr %5, align 4, !tbaa !13
  store i32 %2, ptr %6, align 4, !tbaa !13
  %9 = load ptr, ptr %4, align 8
  %10 = load i32, ptr %5, align 4, !tbaa !13
  %11 = load i32, ptr %6, align 4, !tbaa !13
  call void @_ZN5faiss13ZnSphereCodecC2Eii(ptr noundef nonnull align 8 dereferenceable(104) %9, i32 noundef %10, i32 noundef %11)
  store ptr getelementptr inbounds inrange(-16, 32) ({ [6 x ptr] }, ptr @_ZTVN5faiss16ZnSphereCodecAltE, i32 0, i32 0, i32 2), ptr %9, align 8, !tbaa !39
  %12 = getelementptr inbounds nuw %"struct.faiss::ZnSphereCodecAlt", ptr %9, i32 0, i32 1
  %13 = load i32, ptr %5, align 4, !tbaa !13
  %14 = load i32, ptr %5, align 4, !tbaa !13
  %15 = sub nsw i32 %14, 1
  %16 = and i32 %13, %15
  %17 = icmp eq i32 %16, 0
  %18 = zext i1 %17 to i8
  store i8 %18, ptr %12, align 8, !tbaa !66
  %19 = getelementptr inbounds nuw %"struct.faiss::ZnSphereCodecAlt", ptr %9, i32 0, i32 2
  %20 = getelementptr inbounds nuw %"struct.faiss::ZnSphereCodecAlt", ptr %9, i32 0, i32 1
  %21 = load i8, ptr %20, align 8, !tbaa !66, !range !74, !noundef !75
  %22 = trunc i8 %21 to i1
  br i1 %22, label %23, label %25

23:                                               ; preds = %3
  %24 = load i32, ptr %5, align 4, !tbaa !13
  br label %26

25:                                               ; preds = %3
  br label %26

26:                                               ; preds = %25, %23
  %27 = phi i32 [ %24, %23 ], [ 8, %25 ]
  %28 = getelementptr inbounds nuw %"struct.faiss::ZnSphereCodecAlt", ptr %9, i32 0, i32 1
  %29 = load i8, ptr %28, align 8, !tbaa !66, !range !74, !noundef !75
  %30 = trunc i8 %29 to i1
  br i1 %30, label %31, label %33

31:                                               ; preds = %26
  %32 = load i32, ptr %6, align 4, !tbaa !13
  br label %34

33:                                               ; preds = %26
  br label %34

34:                                               ; preds = %33, %31
  %35 = phi i32 [ %32, %31 ], [ 14, %33 ]
  invoke void @_ZN5faiss16ZnSphereCodecRecC1Eii(ptr noundef nonnull align 8 dereferenceable(112) %19, i32 noundef %27, i32 noundef %35)
          to label %36 unwind label %37

36:                                               ; preds = %34
  ret void

37:                                               ; preds = %34
  %38 = landingpad { ptr, i32 }
          cleanup
  %39 = extractvalue { ptr, i32 } %38, 0
  store ptr %39, ptr %7, align 8
  %40 = extractvalue { ptr, i32 } %38, 1
  store i32 %40, ptr %8, align 4
  call void @_ZN5faiss13ZnSphereCodecD2Ev(ptr noundef nonnull align 8 dereferenceable(104) %9) #3
  br label %41

41:                                               ; preds = %37
  %42 = load ptr, ptr %7, align 8
  %43 = load i32, ptr %8, align 4
  %44 = insertvalue { ptr, i32 } poison, ptr %42, 0
  %45 = insertvalue { ptr, i32 } %44, i32 %43, 1
  resume { ptr, i32 } %45
}