; Function Attrs: mustprogress uwtable
define void @_ZN5faiss16ZnSphereCodecAltC2Eii(ptr noundef nonnull align 8 dereferenceable(224) initializes((24, 32), (40, 64)) %0, i32 noundef %1, i32 noundef %2) unnamed_addr #0 align 2 personality ptr @__gxx_personality_v0 {
  tail call void @_ZN5faiss13ZnSphereCodecC2Eii(ptr noundef nonnull align 8 dereferenceable(104) %0, i32 noundef %1, i32 noundef %2)
  store ptr getelementptr inbounds nuw inrange(-16, 32) (i8, ptr @_ZTVN5faiss16ZnSphereCodecAltE, i64 16), ptr %0, align 8, !tbaa !35
  %4 = getelementptr inbounds nuw i8, ptr %0, i64 104
  %5 = tail call range(i32 0, 33) i32 @llvm.ctpop.i32(i32 %1)
  %6 = icmp samesign ult i32 %5, 2
  %7 = zext i1 %6 to i8
  store i8 %7, ptr %4, align 8, !tbaa !71
  %8 = getelementptr inbounds nuw i8, ptr %0, i64 112
  %9 = select i1 %6, i32 %1, i32 8
  %10 = select i1 %6, i32 %2, i32 14
  invoke void @_ZN5faiss16ZnSphereCodecRecC1Eii(ptr noundef nonnull align 8 dereferenceable(112) %8, i32 noundef %9, i32 noundef %10)
          to label %11 unwind label %12

11:                                               ; preds = %3
  ret void

12:                                               ; preds = %3
  %13 = landingpad { ptr, i32 }
          cleanup
  tail call void @_ZN5faiss13ZnSphereCodecD2Ev(ptr noundef nonnull align 8 dereferenceable(104) %0) #15
  resume { ptr, i32 } %13
}